target datalayout = "e-m:e-p270:32:32-p271:32:32-p272:64:64-i64:64-i128:128-f80:128-n8:16:32:64-S128"
target triple = "x86_64-pc-linux-gnu"

%struct.cli_ctx_tag = type { ptr, ptr, ptr, ptr, ptr, ptr, ptr, i64, ptr, i32, i32, ptr, i32, i32, ptr, [16 x i8], ptr, ptr, ptr, ptr, ptr, ptr, %struct.timeval, i8, i8 }
%struct.timeval = type { i64, i64 }
%struct.cl_fmap = type { ptr, ptr, ptr, i64, i64, i64, i64, i8, i8, i8, i64, i64, i64, i64, ptr, ptr, ptr, ptr, ptr, ptr, ptr, i8, [16 x i8], i8, [20 x i8], i8, [32 x i8], ptr, ptr }

@.str.15 = private unnamed_addr constant [27 x i8] c"cli_unzip: file too short\0A\00", align 1
@.str.19 = private unnamed_addr constant [21 x i8] c"in cli_unzip_single\0A\00", align 1
@.str.20 = private unnamed_addr constant [23 x i8] c"cli_unzip: bad offset\0A\00", align 1

; Function Attrs: nounwind uwtable
define i32 @unzip_single_internal(ptr noundef %0, i64 noundef %1, ptr noundef %2) #0 {
  %4 = alloca i32, align 4
  %5 = alloca ptr, align 8
  %6 = alloca i64, align 8
  %7 = alloca ptr, align 8
  %8 = alloca i32, align 4
  %9 = alloca i32, align 4
  %10 = alloca i32, align 4
  %11 = alloca ptr, align 8
  store ptr %0, ptr %5, align 8
  store i64 %1, ptr %6, align 8
  store ptr %2, ptr %7, align 8
  store i32 0, ptr %8, align 4
  store i32 0, ptr %9, align 4
  %12 = load ptr, ptr %5, align 8
  %13 = getelementptr inbounds %struct.cli_ctx_tag, ptr %12, i32 0, i32 14
  %14 = load ptr, ptr %13, align 8
  store ptr %14, ptr %11, align 8
  call void (ptr, ...) @cli_dbgmsg(ptr noundef @.str.19)
  %15 = load ptr, ptr %11, align 8
  %16 = getelementptr inbounds %struct.cl_fmap, ptr %15, i32 0, i32 13
  %17 = load i64, ptr %16, align 8
  %18 = load i64, ptr %6, align 8
  %19 = sub i64 %17, %18
  %20 = trunc i64 %19 to i32
  store i32 %20, ptr %10, align 4
  %21 = load i64, ptr %6, align 8
  %22 = icmp slt i64 %21, 0
  br i1 %22, label %38, label %23

23:                                               ; preds = %3
  %24 = load i64, ptr %6, align 8
  %25 = load ptr, ptr %11, align 8
  %26 = getelementptr inbounds %struct.cl_fmap, ptr %25, i32 0, i32 13
  %27 = load i64, ptr %26, align 8
  %28 = icmp ugt i64 %24, %27
  br i1 %28, label %38, label %29

29:                                               ; preds = %23
  %30 = load i32, ptr %10, align 4
  %31 = zext i32 %30 to i64
  %32 = load ptr, ptr %11, align 8
  %33 = getelementptr inbounds %struct.cl_fmap, ptr %32, i32 0, i32 13
  %34 = load i64, ptr %33, align 8
  %35 = load i64, ptr %6, align 8
  %36 = sub i64 %34, %35
  %37 = icmp ne i64 %31, %36
  br i1 %37, label %38, label %39

38:                                               ; preds = %29, %23, %3
  call void (ptr, ...) @cli_dbgmsg(ptr noundef @.str.20)
  store i32 0, ptr %4, align 4
  br label %52

39:                                               ; preds = %29
  %40 = load i32, ptr %10, align 4
  %41 = icmp ult i32 %40, 30
  br i1 %41, label %42, label %43

42:                                               ; preds = %39
  call void (ptr, ...) @cli_dbgmsg(ptr noundef @.str.15)
  store i32 0, ptr %4, align 4
  br label %52

43:                                               ; preds = %39
  %44 = load ptr, ptr %11, align 8
  %45 = load i64, ptr %6, align 8
  %46 = trunc i64 %45 to i32
  %47 = load i32, ptr %10, align 4
  %48 = load ptr, ptr %5, align 8
  %49 = load ptr, ptr %7, align 8
  %50 = call i32 @parse_local_file_header(ptr noundef %44, i32 noundef %46, i32 noundef %47, ptr noundef %9, i32 noundef 0, ptr noundef null, ptr noundef %8, ptr noundef %48, ptr noundef null, i32 noundef 0, ptr noundef %49, ptr noundef null)
  %51 = load i32, ptr %8, align 4
  store i32 %51, ptr %4, align 4
  br label %52

52:                                               ; preds = %43, %42, %38
  %53 = load i32, ptr %4, align 4
  ret i32 %53
}