; Function Attrs: nounwind uwtable
define i32 @unzip_single_internal(ptr noundef %0, i64 noundef %1, ptr nocapture noundef readonly %2) local_unnamed_addr #0 {
  %4 = alloca i32, align 4
  %5 = alloca i32, align 4
  store i32 0, ptr %4, align 4
  store i32 0, ptr %5, align 4
  %6 = getelementptr inbounds i8, ptr %0, i64 96
  %7 = load ptr, ptr %6, align 8
  tail call void (ptr, ...) @cli_dbgmsg(ptr noundef nonnull @.str.19) #12
  %8 = getelementptr inbounds i8, ptr %7, i64 88
  %9 = load i64, ptr %8, align 8
  %10 = sub i64 %9, %1
  %11 = trunc i64 %10 to i32
  %12 = icmp sgt i64 %1, -1
  %13 = icmp uge i64 %9, %1
  %.not = icmp ult i64 %10, 4294967296
  %14 = and i1 %13, %.not
  %or.cond17 = select i1 %12, i1 %14, i1 false
  br i1 %or.cond17, label %16, label %15

15:                                               ; preds = %3
  tail call void (ptr, ...) @cli_dbgmsg(ptr noundef nonnull @.str.20) #12
  br label %23

16:                                               ; preds = %3
  %17 = icmp ult i32 %11, 30
  br i1 %17, label %18, label %19

18:                                               ; preds = %16
  tail call void (ptr, ...) @cli_dbgmsg(ptr noundef nonnull @.str.15) #12
  br label %23

19:                                               ; preds = %16
  %20 = trunc i64 %1 to i32
  %21 = call fastcc i32 @parse_local_file_header(ptr noundef nonnull %7, i32 noundef %20, i32 noundef %11, ptr noundef nonnull %5, i32 noundef 0, ptr noundef null, ptr noundef nonnull %4, ptr noundef nonnull %0, i32 noundef 0, ptr noundef %2, ptr noundef null)
  %22 = load i32, ptr %4, align 4
  br label %23

23:                                               ; preds = %19, %18, %15
  %.0 = phi i32 [ 0, %15 ], [ 0, %18 ], [ %22, %19 ]
  ret i32 %.0
}